target datalayout = "e-m:e-p270:32:32-p271:32:32-p272:64:64-i64:64-i128:128-f80:128-n8:16:32:64-S128"
target triple = "x86_64-pc-linux-gnu"

%struct._packet_info = type { ptr, ptr, i32, i32, %struct.nstime_t, %struct.nstime_t, %struct.nstime_t, i8, ptr, ptr, ptr, ptr, %struct._address, %struct._address, %struct._address, %struct._address, %struct._address, %struct._address, i32, ptr, i8, [3 x i8], %struct.anon, i32, i32, i32, i32, ptr, i8, ptr, ptr, i16, i16, i32, i32, i16, i32, i32, ptr, ptr, ptr, i8, i8, i16, i16, i16, i32, i16, i16, ptr, ptr, ptr, ptr, ptr, i32, i32 }
%struct.nstime_t = type { i64, i32 }
%struct._address = type { i32, i32, ptr, ptr }
%struct.anon = type { i8, [3 x i8] }
%struct._diam_ctx_t = type { ptr, ptr, ptr }

@proto_diameter = internal global i32 0, align 4
@hf_diameter_code = internal global i32 0, align 4
@.str.36 = private unnamed_addr constant [14 x i8] c"diameter.code\00", align 1
@.str.37 = private unnamed_addr constant [9 x i8] c"DIAMETER\00", align 1
@ett_diameter = internal global i32 0, align 4
@.str.82 = private unnamed_addr constant [6 x i8] c"AVPs:\00", align 1

; Function Attrs: null_pointer_is_valid sspstrong uwtable
define internal i32 @dissect_diameter_avps(ptr noundef %0, ptr noundef %1, ptr noundef %2, ptr noundef %3) #0 {
  %5 = alloca ptr, align 8
  %6 = alloca ptr, align 8
  %7 = alloca ptr, align 8
  %8 = alloca ptr, align 8
  %9 = alloca ptr, align 8
  %10 = alloca ptr, align 8
  %11 = alloca i32, align 4
  %12 = alloca ptr, align 8
  %13 = alloca ptr, align 8
  store ptr %0, ptr %5, align 8
  store ptr %1, ptr %6, align 8
  store ptr %2, ptr %7, align 8
  store ptr %3, ptr %8, align 8
  call void @llvm.lifetime.start.p0(i64 8, ptr %9) #14
  call void @llvm.lifetime.start.p0(i64 8, ptr %10) #14
  call void @llvm.lifetime.start.p0(i64 4, ptr %11) #14
  store i32 0, ptr %11, align 4
  call void @llvm.lifetime.start.p0(i64 8, ptr %12) #14
  %14 = load ptr, ptr %6, align 8
  %15 = getelementptr inbounds nuw %struct._packet_info, ptr %14, i32 0, i32 51
  %16 = load ptr, ptr %15, align 8
  %17 = call noalias ptr @wmem_alloc0(ptr noundef %16, i64 noundef 24) #15
  store ptr %17, ptr %12, align 8
  call void @llvm.lifetime.start.p0(i64 8, ptr %13) #14
  %18 = load ptr, ptr %6, align 8
  %19 = getelementptr inbounds nuw %struct._packet_info, ptr %18, i32 0, i32 51
  %20 = load ptr, ptr %19, align 8
  %21 = call noalias ptr @wmem_alloc0(ptr noundef %20, i64 noundef 56) #15
  store ptr %21, ptr %13, align 8
  %22 = load i32, ptr @hf_diameter_code, align 4
  %23 = icmp sle i32 %22, 0
  br i1 %23, label %24, label %26

24:                                               ; preds = %4
  %25 = call ptr @proto_registrar_get_byname(ptr noundef @.str.36)
  br label %26

26:                                               ; preds = %24, %4
  %27 = load ptr, ptr %6, align 8
  %28 = getelementptr inbounds nuw %struct._packet_info, ptr %27, i32 0, i32 1
  %29 = load ptr, ptr %28, align 8
  call void @col_set_str(ptr noundef %29, i32 noundef 35, ptr noundef @.str.37)
  %30 = load ptr, ptr %6, align 8
  %31 = getelementptr inbounds nuw %struct._packet_info, ptr %30, i32 0, i32 1
  %32 = load ptr, ptr %31, align 8
  call void @col_set_str(ptr noundef %32, i32 noundef 25, ptr noundef @.str.82)
  %33 = load ptr, ptr %7, align 8
  %34 = load i32, ptr @proto_diameter, align 4
  %35 = load ptr, ptr %5, align 8
  %36 = call ptr @proto_tree_add_item(ptr noundef %33, i32 noundef %34, ptr noundef %35, i32 noundef 0, i32 noundef -1, i32 noundef 0)
  store ptr %36, ptr %9, align 8
  %37 = load ptr, ptr %9, align 8
  %38 = load i32, ptr @ett_diameter, align 4
  %39 = call ptr @proto_item_add_subtree(ptr noundef %37, i32 noundef %38)
  store ptr %39, ptr %10, align 8
  %40 = load ptr, ptr %10, align 8
  %41 = load ptr, ptr %12, align 8
  %42 = getelementptr inbounds nuw %struct._diam_ctx_t, ptr %41, i32 0, i32 0
  store ptr %40, ptr %42, align 8
  %43 = load ptr, ptr %6, align 8
  %44 = load ptr, ptr %12, align 8
  %45 = getelementptr inbounds nuw %struct._diam_ctx_t, ptr %44, i32 0, i32 1
  store ptr %43, ptr %45, align 8
  br label %46

46:                                               ; preds = %51, %26
  %47 = load ptr, ptr %5, align 8
  %48 = load i32, ptr %11, align 4
  %49 = call i32 @tvb_reported_length_remaining(ptr noundef %47, i32 noundef %48)
  %50 = icmp ne i32 %49, 0
  br i1 %50, label %51, label %59

51:                                               ; preds = %46
  %52 = load ptr, ptr %12, align 8
  %53 = load ptr, ptr %5, align 8
  %54 = load i32, ptr %11, align 4
  %55 = load ptr, ptr %13, align 8
  %56 = call i32 @dissect_diameter_avp(ptr noundef %52, ptr noundef %53, i32 noundef %54, ptr noundef %55, i1 noundef zeroext true)
  %57 = load i32, ptr %11, align 4
  %58 = add i32 %57, %56
  store i32 %58, ptr %11, align 4
  br label %46, !llvm.loop !8

59:                                               ; preds = %46
  %60 = load ptr, ptr %5, align 8
  %61 = call i32 @tvb_reported_length(ptr noundef %60)
  call void @llvm.lifetime.end.p0(i64 8, ptr %13) #14
  call void @llvm.lifetime.end.p0(i64 8, ptr %12) #14
  call void @llvm.lifetime.end.p0(i64 4, ptr %11) #14
  call void @llvm.lifetime.end.p0(i64 8, ptr %10) #14
  call void @llvm.lifetime.end.p0(i64 8, ptr %9) #14
  ret i32 %61
}