; Function Attrs: null_pointer_is_valid sspstrong uwtable
define internal i32 @dissect_diameter_avps(ptr noundef %0, ptr noundef %1, ptr noundef %2, ptr readnone captures(none) %3) #0 {
  %5 = getelementptr inbounds nuw i8, ptr %1, i64 408
  %6 = load ptr, ptr %5, align 8
  %7 = tail call noalias dereferenceable_or_null(24) ptr @wmem_alloc0(ptr noundef %6, i64 noundef 24) #15
  %8 = load ptr, ptr %5, align 8
  %9 = tail call noalias dereferenceable_or_null(56) ptr @wmem_alloc0(ptr noundef %8, i64 noundef 56) #15
  %10 = load i32, ptr @hf_diameter_code, align 4
  %11 = icmp slt i32 %10, 1
  br i1 %11, label %12, label %14

12:                                               ; preds = %4
  %13 = tail call ptr @proto_registrar_get_byname(ptr noundef nonnull @.str.36)
  br label %14

14:                                               ; preds = %12, %4
  %15 = getelementptr inbounds nuw i8, ptr %1, i64 8
  %16 = load ptr, ptr %15, align 8
  tail call void @col_set_str(ptr noundef %16, i32 noundef 35, ptr noundef nonnull @.str.37)
  %17 = load ptr, ptr %15, align 8
  tail call void @col_set_str(ptr noundef %17, i32 noundef 25, ptr noundef nonnull @.str.82)
  %18 = load i32, ptr @proto_diameter, align 4
  %19 = tail call ptr @proto_tree_add_item(ptr noundef %2, i32 noundef %18, ptr noundef %0, i32 noundef 0, i32 noundef -1, i32 noundef 0)
  %20 = load i32, ptr @ett_diameter, align 4
  %21 = tail call ptr @proto_item_add_subtree(ptr noundef %19, i32 noundef %20)
  store ptr %21, ptr %7, align 8
  %22 = getelementptr inbounds nuw i8, ptr %7, i64 8
  store ptr %1, ptr %22, align 8
  %23 = tail call i32 @tvb_reported_length_remaining(ptr noundef %0, i32 noundef 0)
  %.not18 = icmp eq i32 %23, 0
  br i1 %.not18, label %._crit_edge, label %.lr.ph

.lr.ph:                                           ; preds = %14, %.lr.ph
  %.019 = phi i32 [ %25, %.lr.ph ], [ 0, %14 ]
  %24 = tail call fastcc i32 @dissect_diameter_avp(ptr noundef %7, ptr noundef %0, i32 noundef %.019, ptr noundef %9, i1 noundef zeroext true)
  %25 = add i32 %24, %.019
  %26 = tail call i32 @tvb_reported_length_remaining(ptr noundef %0, i32 noundef %25)
  %.not = icmp eq i32 %26, 0
  br i1 %.not, label %._crit_edge, label %.lr.ph, !llvm.loop !8

._crit_edge:                                      ; preds = %.lr.ph, %14
  %27 = tail call i32 @tvb_reported_length(ptr noundef %0)
  ret i32 %27
}